Certificate:
    Data:
        Version: 3 (0x2)
        Serial Number:
            6e:a6:63:9e:45:2f:e6:df:ed:b3:6a:ed:99:ff:2e:a4
        Signature Algorithm: ecdsa-with-SHA256
        Issuer: CN=fieldtracks.org internal CA
        Validity
            Not Before: Sep 10 08:04:13 2019 GMT
            Not After : Sep  7 08:04:13 2029 GMT
        Subject: CN=dev.fieldtracks.org
        Subject Public Key Info:
            Public Key Algorithm: id-ecPublicKey
                Public-Key: (384 bit)
                pub:
                    04:a9:5d:ef:5b:4a:bd:85:66:23:4d:f1:77:d4:89:
                    1c:d9:4a:38:8f:66:7b:52:76:f9:5d:d4:27:95:c9:
                    05:9e:13:cb:4a:18:a7:55:c1:d5:1a:6f:55:43:e7:
                    e5:5d:d9:20:e7:f7:b3:c5:7c:0a:b6:0d:90:a9:96:
                    b3:37:5c:46:2b:ed:44:a9:bc:fa:48:c0:97:c5:c8:
                    eb:76:fb:47:d9:cf:f7:a9:5c:9e:78:7b:b6:6e:a5:
                    cb:7b:7c:0a:06:2a:f4
                ASN1 OID: secp384r1
                NIST CURVE: P-384
        X509v3 extensions:
            X509v3 Basic Constraints: 
                CA:FALSE
            X509v3 Subject Key Identifier: 
                2D:A5:3E:2E:55:4B:F6:DC:07:AF:F1:C8:F7:0B:7E:3E:95:13:07:CC
            X509v3 Authority Key Identifier: 
                keyid:EE:FD:7C:EB:B9:D8:3A:9A:27:12:97:C4:59:49:48:CF:03:E8:C3:F0
                DirName:/CN=fieldtracks.org internal CA
                serial:59:D4:0A:83:6E:A0:88:FF:4B:D2:2A:97:A1:4E:B6:F0:67:44:5C:F8

            X509v3 Extended Key Usage: 
                TLS Web Server Authentication
            X509v3 Key Usage: 
                Digital Signature, Key Encipherment
            X509v3 Subject Alternative Name: 
                DNS:dev.fieldtracks.org
    Signature Algorithm: ecdsa-with-SHA256
         30:65:02:30:01:49:a0:de:50:04:31:35:5a:55:86:ac:b0:4a:
         64:1a:25:55:17:f1:d7:a2:23:1e:f7:b5:c4:1b:88:88:f2:a1:
         a4:2e:a3:a6:ae:1e:06:41:18:59:ec:41:76:29:61:f4:02:31:
         00:eb:5f:58:91:f4:e9:3a:94:01:c3:13:9c:2b:05:26:15:39:
         ab:65:d5:a6:73:9e:48:db:5e:80:bb:ac:3b:3d:6b:56:42:3b:
         55:d3:fb:75:4f:13:8b:81:5d:5e:82:8e:7c
-----BEGIN CERTIFICATE-----
MIICUjCCAdigAwIBAgIQbqZjnkUv5t/ts2rtmf8upDAKBggqhkjOPQQDAjAmMSQw
IgYDVQQDDBtmaWVsZHRyYWNrcy5vcmcgaW50ZXJuYWwgQ0EwHhcNMTkwOTEwMDgw
NDEzWhcNMjkwOTA3MDgwNDEzWjAeMRwwGgYDVQQDDBNkZXYuZmllbGR0cmFja3Mu
b3JnMHYwEAYHKoZIzj0CAQYFK4EEACIDYgAEqV3vW0q9hWYjTfF31Ikc2Uo4j2Z7
Unb5XdQnlckFnhPLShinVcHVGm9VQ+flXdkg5/ezxXwKtg2QqZazN1xGK+1Eqbz6
SMCXxcjrdvtH2c/3qVyeeHu2bqXLe3wKBir0o4HSMIHPMAkGA1UdEwQCMAAwHQYD
VR0OBBYEFC2lPi5VS/bcB6/xyPcLfj6VEwfMMGEGA1UdIwRaMFiAFO79fOu52Dqa
JxKXxFlJSM8D6MPwoSqkKDAmMSQwIgYDVQQDDBtmaWVsZHRyYWNrcy5vcmcgaW50
ZXJuYWwgQ0GCFFnUCoNuoIj/S9Iql6FOtvBnRFz4MBMGA1UdJQQMMAoGCCsGAQUF
BwMBMAsGA1UdDwQEAwIFoDAeBgNVHREEFzAVghNkZXYuZmllbGR0cmFja3Mub3Jn
MAoGCCqGSM49BAMCA2gAMGUCMAFJoN5QBDE1WlWGrLBKZBolVRfx16IjHve1xBuI
iPKhpC6jpq4eBkEYWexBdilh9AIxAOtfWJH06TqUAcMTnCsFJhU5q2XVpnOeSNte
gLusOz1rVkI7VdP7dU8Ti4FdXoKOfA==
-----END CERTIFICATE-----
