Certificate:
    Data:
        Version: 3 (0x2)
        Serial Number:
            ed:b3:45:6f:0c:23:0d:72:5e:bb:67:0d:6a:08:58:7b
        Signature Algorithm: ecdsa-with-SHA256
        Issuer: CN=fieldtracks.org internal CA
        Validity
            Not Before: Sep 10 08:04:24 2019 GMT
            Not After : Sep  7 08:04:24 2029 GMT
        Subject: CN=prod.fieldtracks.org
        Subject Public Key Info:
            Public Key Algorithm: id-ecPublicKey
                Public-Key: (384 bit)
                pub:
                    04:fc:3e:62:a2:47:35:54:34:3a:c2:d8:fd:68:9f:
                    38:15:18:6a:30:83:6d:ae:66:72:f6:0d:fb:03:a4:
                    2d:ca:86:d4:36:7d:21:4f:d5:47:da:b5:72:6e:7d:
                    f2:4c:72:46:6a:91:05:4c:03:47:83:33:ae:87:74:
                    bb:c7:7f:48:59:f7:b1:75:0f:30:c2:08:f9:72:27:
                    d6:f4:d5:3a:29:8d:21:06:4b:d8:b9:d6:5a:a1:5d:
                    f7:42:46:34:4f:3d:ac
                ASN1 OID: secp384r1
                NIST CURVE: P-384
        X509v3 extensions:
            X509v3 Basic Constraints: 
                CA:FALSE
            X509v3 Subject Key Identifier: 
                A5:4A:10:18:A9:A4:98:94:78:41:8C:82:D2:61:C6:44:95:D3:BA:35
            X509v3 Authority Key Identifier: 
                keyid:EE:FD:7C:EB:B9:D8:3A:9A:27:12:97:C4:59:49:48:CF:03:E8:C3:F0
                DirName:/CN=fieldtracks.org internal CA
                serial:59:D4:0A:83:6E:A0:88:FF:4B:D2:2A:97:A1:4E:B6:F0:67:44:5C:F8

            X509v3 Extended Key Usage: 
                TLS Web Server Authentication
            X509v3 Key Usage: 
                Digital Signature, Key Encipherment
            X509v3 Subject Alternative Name: 
                DNS:prod.fieldtracks.org
    Signature Algorithm: ecdsa-with-SHA256
         30:66:02:31:00:f2:43:3e:73:02:84:92:74:3b:75:4f:42:00:
         b8:8f:bc:e6:8c:d7:60:7a:47:e7:10:0e:5a:54:a7:88:a3:e8:
         89:e2:6f:63:2d:70:1e:87:5a:d3:02:87:6b:8a:9c:aa:42:02:
         31:00:ac:2e:8f:6c:00:9b:66:f3:9f:00:0e:ad:a1:5a:73:29:
         94:5e:c7:ad:6e:52:81:93:4e:84:fa:15:44:db:12:6c:ac:13:
         2d:30:b7:83:33:e8:7a:a4:6d:c3:cc:a4:7f:06
-----BEGIN CERTIFICATE-----
MIICVjCCAdugAwIBAgIRAO2zRW8MIw1yXrtnDWoIWHswCgYIKoZIzj0EAwIwJjEk
MCIGA1UEAwwbZmllbGR0cmFja3Mub3JnIGludGVybmFsIENBMB4XDTE5MDkxMDA4
MDQyNFoXDTI5MDkwNzA4MDQyNFowHzEdMBsGA1UEAwwUcHJvZC5maWVsZHRyYWNr
cy5vcmcwdjAQBgcqhkjOPQIBBgUrgQQAIgNiAAT8PmKiRzVUNDrC2P1onzgVGGow
g22uZnL2DfsDpC3KhtQ2fSFP1UfatXJuffJMckZqkQVMA0eDM66HdLvHf0hZ97F1
DzDCCPlyJ9b01TopjSEGS9i51lqhXfdCRjRPPayjgdMwgdAwCQYDVR0TBAIwADAd
BgNVHQ4EFgQUpUoQGKmkmJR4QYyC0mHGRJXTujUwYQYDVR0jBFowWIAU7v1867nY
OponEpfEWUlIzwPow/ChKqQoMCYxJDAiBgNVBAMMG2ZpZWxkdHJhY2tzLm9yZyBp
bnRlcm5hbCBDQYIUWdQKg26giP9L0iqXoU628GdEXPgwEwYDVR0lBAwwCgYIKwYB
BQUHAwEwCwYDVR0PBAQDAgWgMB8GA1UdEQQYMBaCFHByb2QuZmllbGR0cmFja3Mu
b3JnMAoGCCqGSM49BAMCA2kAMGYCMQDyQz5zAoSSdDt1T0IAuI+85ozXYHpH5xAO
WlSniKPoieJvYy1wHoda0wKHa4qcqkICMQCsLo9sAJtm858ADq2hWnMplF7HrW5S
gZNOhPoVRNsSbKwTLTC3gzPoeqRtw8ykfwY=
-----END CERTIFICATE-----
