Certificate:
    Data:
        Version: 3 (0x2)
        Serial Number:
            84:2b:fa:07:3e:a0:7c:6f:f1:91:6b:84:78:d2:b1:df
        Signature Algorithm: ecdsa-with-SHA256
        Issuer: CN=fieldtracks.org internal CA
        Validity
            Not Before: Sep 10 08:04:19 2019 GMT
            Not After : Sep  7 08:04:19 2029 GMT
        Subject: CN=test.fieldtracks.org
        Subject Public Key Info:
            Public Key Algorithm: id-ecPublicKey
                Public-Key: (384 bit)
                pub:
                    04:7f:47:da:6c:71:88:88:8b:b6:93:1c:2b:05:9d:
                    ce:25:1f:fb:bc:d7:b8:df:48:87:e7:3a:87:67:cc:
                    a7:46:11:bc:35:f1:d5:29:df:7e:e9:01:36:4d:b5:
                    71:50:72:6e:c6:0b:ab:a4:cd:11:69:fc:cc:3c:25:
                    46:c4:d7:90:02:06:e3:b1:2a:d6:12:b5:c6:e9:64:
                    6f:77:e4:88:d5:fa:c3:5a:89:be:d8:de:e6:f6:f4:
                    65:93:6a:e4:be:15:8c
                ASN1 OID: secp384r1
                NIST CURVE: P-384
        X509v3 extensions:
            X509v3 Basic Constraints: 
                CA:FALSE
            X509v3 Subject Key Identifier: 
                23:23:E0:27:15:03:2A:E5:23:FF:17:0C:78:4F:29:DD:CF:E1:B5:76
            X509v3 Authority Key Identifier: 
                keyid:EE:FD:7C:EB:B9:D8:3A:9A:27:12:97:C4:59:49:48:CF:03:E8:C3:F0
                DirName:/CN=fieldtracks.org internal CA
                serial:59:D4:0A:83:6E:A0:88:FF:4B:D2:2A:97:A1:4E:B6:F0:67:44:5C:F8

            X509v3 Extended Key Usage: 
                TLS Web Server Authentication
            X509v3 Key Usage: 
                Digital Signature, Key Encipherment
            X509v3 Subject Alternative Name: 
                DNS:test.fieldtracks.org
    Signature Algorithm: ecdsa-with-SHA256
         30:64:02:30:35:db:96:ad:3b:98:ef:e1:b7:7b:8b:f1:5d:71:
         f0:25:ae:f8:a8:69:9a:ee:ac:e6:fc:a2:ad:c1:d8:75:2c:f7:
         c5:39:ee:ee:7a:4e:b8:d2:f9:aa:d1:75:e3:91:a9:43:02:30:
         08:75:2b:6c:6c:9e:72:5f:07:7b:61:57:c1:67:cd:02:53:91:
         4c:f9:5a:96:8b:60:23:a4:1f:8e:5d:9c:fc:be:11:d5:69:5d:
         ab:18:5e:0b:dc:c1:45:6f:7f:90:1b:cf
-----BEGIN CERTIFICATE-----
MIICVDCCAdugAwIBAgIRAIQr+gc+oHxv8ZFrhHjSsd8wCgYIKoZIzj0EAwIwJjEk
MCIGA1UEAwwbZmllbGR0cmFja3Mub3JnIGludGVybmFsIENBMB4XDTE5MDkxMDA4
MDQxOVoXDTI5MDkwNzA4MDQxOVowHzEdMBsGA1UEAwwUdGVzdC5maWVsZHRyYWNr
cy5vcmcwdjAQBgcqhkjOPQIBBgUrgQQAIgNiAAR/R9pscYiIi7aTHCsFnc4lH/u8
17jfSIfnOodnzKdGEbw18dUp337pATZNtXFQcm7GC6ukzRFp/Mw8JUbE15ACBuOx
KtYStcbpZG935IjV+sNaib7Y3ub29GWTauS+FYyjgdMwgdAwCQYDVR0TBAIwADAd
BgNVHQ4EFgQUIyPgJxUDKuUj/xcMeE8p3c/htXYwYQYDVR0jBFowWIAU7v1867nY
OponEpfEWUlIzwPow/ChKqQoMCYxJDAiBgNVBAMMG2ZpZWxkdHJhY2tzLm9yZyBp
bnRlcm5hbCBDQYIUWdQKg26giP9L0iqXoU628GdEXPgwEwYDVR0lBAwwCgYIKwYB
BQUHAwEwCwYDVR0PBAQDAgWgMB8GA1UdEQQYMBaCFHRlc3QuZmllbGR0cmFja3Mu
b3JnMAoGCCqGSM49BAMCA2cAMGQCMDXblq07mO/ht3uL8V1x8CWu+Khpmu6s5vyi
rcHYdSz3xTnu7npOuNL5qtF145GpQwIwCHUrbGyecl8He2FXwWfNAlORTPlalotg
I6Qfjl2c/L4R1WldqxheC9zBRW9/kBvP
-----END CERTIFICATE-----
